; Function Attrs: mustprogress uwtable
define hidden void @_ZN2cv3mcc20CCheckerDetectorImpl25get_subbox_chart_physicalERKSt6vectorINS_6Point_IfEESaIS4_EERS6_(ptr noundef nonnull readnone align 8 captures(none) dereferenceable(49) %0, ptr noundef nonnull readonly align 8 captures(none) dereferenceable(24) %1, ptr noundef nonnull align 8 dereferenceable(24) %2) local_unnamed_addr #11 align 2 personality ptr @__gxx_personality_v0 {
  %4 = load ptr, ptr %1, align 8, !tbaa !180
  %5 = getelementptr inbounds nuw i8, ptr %4, i64 8
  %.val18 = load float, ptr %5, align 4, !tbaa !192
  %6 = getelementptr i8, ptr %4, i64 12
  %.val19 = load float, ptr %6, align 4, !tbaa !194
  %.val20 = load float, ptr %4, align 4, !tbaa !192
  %7 = getelementptr i8, ptr %4, i64 4
  %.val21 = load float, ptr %7, align 4, !tbaa !194
  %8 = getelementptr inbounds nuw i8, ptr %4, i64 24
  %.val = load float, ptr %8, align 4, !tbaa !192
  %9 = getelementptr i8, ptr %4, i64 28
  %.val15 = load float, ptr %9, align 4, !tbaa !194
  %10 = load ptr, ptr %2, align 8, !tbaa !180
  %11 = getelementptr inbounds nuw i8, ptr %2, i64 8
  %12 = load ptr, ptr %11, align 8, !tbaa !184
  %.not.i.i = icmp eq ptr %12, %10
  br i1 %.not.i.i, label %_ZNSt6vectorIN2cv6Point_IfEESaIS2_EE5clearEv.exit, label %13

13:                                               ; preds = %3
  store ptr %10, ptr %11, align 8, !tbaa !184
  br label %_ZNSt6vectorIN2cv6Point_IfEESaIS2_EE5clearEv.exit

_ZNSt6vectorIN2cv6Point_IfEESaIS2_EE5clearEv.exit: ; preds = %3, %13
  %14 = fsub float %.val, %.val20
  %15 = fpext float %14 to double
  %16 = fsub float %.val15, %.val21
  %17 = fpext float %16 to double
  %18 = fmul double %17, %17
  %19 = tail call double @llvm.fmuladd.f64(double %15, double %15, double %18)
  %sqrt.i = tail call noundef double @llvm.sqrt.f64(double %19)
  %20 = fsub float %.val18, %.val20
  %21 = fpext float %20 to double
  %22 = fsub float %.val19, %.val21
  %23 = fpext float %22 to double
  %24 = fmul double %23, %23
  %25 = tail call double @llvm.fmuladd.f64(double %21, double %21, double %24)
  %sqrt.i28 = tail call noundef double @llvm.sqrt.f64(double %25)
  %26 = fdiv double %sqrt.i, %sqrt.i28
  %27 = fptrunc double %26 to float
  %28 = fmul float %27, 1.000000e+02
  %29 = fpext float %28 to double
  %30 = fadd double %29, 5.000000e-01
  %31 = tail call double @llvm.floor.f64(double %30)
  %32 = fptrunc double %31 to float
  tail call void @_ZNSt6vectorIN2cv6Point_IfEESaIS2_EE6resizeEm(ptr noundef nonnull align 8 dereferenceable(24) %2, i64 noundef 4)
  %33 = load ptr, ptr %2, align 8, !tbaa !180
  store i32 0, ptr %33, align 4
  %.sroa_idx36 = getelementptr inbounds nuw i8, ptr %33, i64 4
  store i32 0, ptr %.sroa_idx36, align 4
  %34 = load ptr, ptr %2, align 8, !tbaa !180
  %35 = getelementptr inbounds nuw i8, ptr %34, i64 8
  store i32 1120403456, ptr %35, align 4
  %.sroa_idx33 = getelementptr inbounds nuw i8, ptr %34, i64 12
  store i32 0, ptr %.sroa_idx33, align 4
  %36 = load ptr, ptr %2, align 8, !tbaa !180
  %37 = getelementptr inbounds nuw i8, ptr %36, i64 16
  store i32 1120403456, ptr %37, align 4
  %.sroa_idx30 = getelementptr inbounds nuw i8, ptr %36, i64 20
  store float %32, ptr %.sroa_idx30, align 4
  %38 = load ptr, ptr %2, align 8, !tbaa !180
  %39 = getelementptr inbounds nuw i8, ptr %38, i64 24
  store i32 0, ptr %39, align 4
  %.sroa_idx29 = getelementptr inbounds nuw i8, ptr %38, i64 28
  store float %32, ptr %.sroa_idx29, align 4
  ret void
}